; Function Attrs: nounwind uwtable
define void @Gia_ManTerStatesFree(ptr noundef captures(none) %0) local_unnamed_addr #0 {
  %2 = getelementptr i8, ptr %0, i64 4
  %.val9 = load i32, ptr %2, align 4
  %3 = icmp sgt i32 %.val9, 0
  br i1 %3, label %.lr.ph, label %.critedge

.lr.ph:                                           ; preds = %1
  %4 = getelementptr i8, ptr %0, i64 8
  br label %5

5:                                                ; preds = %.lr.ph, %9
  %.val12 = phi i32 [ %.val9, %.lr.ph ], [ %.val, %9 ]
  %indvars.iv = phi i64 [ 0, %.lr.ph ], [ %indvars.iv.next, %9 ]
  %.val8 = load ptr, ptr %4, align 8
  %6 = getelementptr inbounds nuw ptr, ptr %.val8, i64 %indvars.iv
  %7 = load ptr, ptr %6, align 8
  %.not = icmp eq ptr %7, null
  br i1 %.not, label %9, label %8

8:                                                ; preds = %5
  tail call void @free(ptr noundef nonnull %7) #22
  %.val.pre = load i32, ptr %2, align 4
  br label %9

9:                                                ; preds = %8, %5
  %.val = phi i32 [ %.val.pre, %8 ], [ %.val12, %5 ]
  %indvars.iv.next = add nuw nsw i64 %indvars.iv, 1
  %10 = sext i32 %.val to i64
  %11 = icmp slt i64 %indvars.iv.next, %10
  br i1 %11, label %5, label %.critedge, !llvm.loop !7

.critedge:                                        ; preds = %9, %1
  %12 = getelementptr inbounds nuw i8, ptr %0, i64 8
  %13 = load ptr, ptr %12, align 8
  %.not.i = icmp eq ptr %13, null
  br i1 %.not.i, label %Vec_PtrFree.exit, label %14

14:                                               ; preds = %.critedge
  tail call void @free(ptr noundef nonnull %13) #22
  br label %Vec_PtrFree.exit

Vec_PtrFree.exit:                                 ; preds = %.critedge, %14
  tail call void @free(ptr noundef nonnull %0) #22
  ret void
}